target datalayout = "e-m:e-p270:32:32-p271:32:32-p272:64:64-i64:64-i128:128-f80:128-n8:16:32:64-S128"
target triple = "x86_64-pc-linux-gnu"

@H5P_init_g = external global i8, align 1
@H5_libterm_g = external global i8, align 1

; Function Attrs: nounwind uwtable
define internal i32 @H5P__facc_libver_type_enc(ptr noundef %0, ptr noundef %1, ptr noundef %2) #0 {
  %4 = alloca ptr, align 8
  %5 = alloca ptr, align 8
  %6 = alloca ptr, align 8
  %7 = alloca ptr, align 8
  %8 = alloca ptr, align 8
  store ptr %0, ptr %4, align 8, !tbaa !32
  store ptr %1, ptr %5, align 8, !tbaa !32
  store ptr %2, ptr %6, align 8, !tbaa !30
  call void @llvm.lifetime.start.p0(i64 8, ptr %7) #10
  %9 = load ptr, ptr %4, align 8, !tbaa !32
  store ptr %9, ptr %7, align 8, !tbaa !32
  call void @llvm.lifetime.start.p0(i64 8, ptr %8) #10
  %10 = load ptr, ptr %5, align 8, !tbaa !32
  store ptr %10, ptr %8, align 8, !tbaa !71
  %11 = load i8, ptr @H5P_init_g, align 1, !tbaa !22, !range !24, !noundef !25
  %12 = trunc i8 %11 to i1
  br i1 %12, label %17, label %13

13:                                               ; preds = %3
  %14 = load i8, ptr @H5_libterm_g, align 1, !tbaa !22, !range !24, !noundef !25
  %15 = trunc i8 %14 to i1
  %16 = xor i1 %15, true
  br label %17

17:                                               ; preds = %13, %3
  %18 = phi i1 [ true, %3 ], [ %16, %13 ]
  %19 = xor i1 %18, true
  %20 = xor i1 %19, true
  %21 = zext i1 %20 to i32
  %22 = sext i32 %21 to i64
  %23 = call i64 @llvm.expect.i64(i64 %22, i64 1)
  %24 = icmp ne i64 %23, 0
  br i1 %24, label %25, label %40

25:                                               ; preds = %17
  %26 = load ptr, ptr %8, align 8, !tbaa !71
  %27 = load ptr, ptr %26, align 8, !tbaa !26
  %28 = icmp ne ptr null, %27
  br i1 %28, label %29, label %36

29:                                               ; preds = %25
  %30 = load ptr, ptr %7, align 8, !tbaa !32
  %31 = load i32, ptr %30, align 4, !tbaa !20
  %32 = trunc i32 %31 to i8
  %33 = load ptr, ptr %8, align 8, !tbaa !71
  %34 = load ptr, ptr %33, align 8, !tbaa !26
  %35 = getelementptr inbounds nuw i8, ptr %34, i32 1
  store ptr %35, ptr %33, align 8, !tbaa !26
  store i8 %32, ptr %34, align 1, !tbaa !27
  br label %36

36:                                               ; preds = %29, %25
  %37 = load ptr, ptr %6, align 8, !tbaa !30
  %38 = load i64, ptr %37, align 8, !tbaa !8
  %39 = add i64 %38, 1
  store i64 %39, ptr %37, align 8, !tbaa !8
  br label %40

40:                                               ; preds = %36, %17
  call void @llvm.lifetime.end.p0(i64 8, ptr %8) #10
  call void @llvm.lifetime.end.p0(i64 8, ptr %7) #10
  ret i32 0
}