; Function Attrs: mustprogress nofree norecurse nosync nounwind willreturn memory(readwrite, inaccessiblemem: none) uwtable
define internal noundef i32 @H5P__facc_libver_type_enc(ptr noundef readonly captures(none) %0, ptr noundef captures(none) %1, ptr noundef captures(none) %2) #11 {
  %4 = load i8, ptr @H5P_init_g, align 1, !tbaa !16, !range !18, !noundef !19
  %5 = trunc nuw i8 %4 to i1
  %6 = load i8, ptr @H5_libterm_g, align 1, !range !18
  %7 = trunc nuw i8 %6 to i1
  %8 = xor i1 %7, true
  %9 = select i1 %5, i1 true, i1 %8
  br i1 %9, label %10, label %19, !prof !20

10:                                               ; preds = %3
  %11 = load ptr, ptr %1, align 8, !tbaa !59
  %.not = icmp eq ptr %11, null
  br i1 %.not, label %16, label %12

12:                                               ; preds = %10
  %13 = load i32, ptr %0, align 4, !tbaa !31
  %14 = trunc i32 %13 to i8
  %15 = getelementptr inbounds nuw i8, ptr %11, i64 1
  store ptr %15, ptr %1, align 8, !tbaa !59
  store i8 %14, ptr %11, align 1, !tbaa !21
  br label %16

16:                                               ; preds = %12, %10
  %17 = load i64, ptr %2, align 8, !tbaa !3
  %18 = add i64 %17, 1
  store i64 %18, ptr %2, align 8, !tbaa !3
  br label %19

19:                                               ; preds = %16, %3
  ret i32 0
}